; Function Attrs: mustprogress uwtable
define internal void @_ZNK12_GLOBAL__N_111ParallelDftclERKN2cv5RangeE(ptr noundef nonnull readonly align 8 captures(none) dereferenceable(32) %0, ptr noundef nonnull readonly align 4 captures(none) dereferenceable(8) %1) unnamed_addr #3 align 2 personality ptr @__gxx_personality_v0 {
  %3 = alloca %"class.cv::_InputArray", align 8
  %4 = alloca %"class.cv::_OutputArray", align 8
  %5 = load i32, ptr %1, align 4, !tbaa !64
  %6 = getelementptr inbounds nuw i8, ptr %1, i64 4
  %7 = load i32, ptr %6, align 4, !tbaa !66
  %.not11 = icmp eq i32 %5, %7
  br i1 %.not11, label %._crit_edge, label %.lr.ph

.lr.ph:                                           ; preds = %2
  %8 = getelementptr inbounds nuw i8, ptr %0, i64 8
  %9 = getelementptr inbounds nuw i8, ptr %3, i64 16
  %10 = getelementptr inbounds nuw i8, ptr %3, i64 20
  %11 = getelementptr inbounds nuw i8, ptr %3, i64 8
  %12 = getelementptr inbounds nuw i8, ptr %4, i64 8
  %13 = getelementptr inbounds nuw i8, ptr %4, i64 16
  %14 = sext i32 %5 to i64
  br label %15

._crit_edge:                                      ; preds = %15, %2
  ret void

15:                                               ; preds = %.lr.ph, %15
  %indvars.iv = phi i64 [ %14, %.lr.ph ], [ %indvars.iv.next, %15 ]
  call void @llvm.lifetime.start.p0(i64 24, ptr nonnull %3) #16
  %16 = load ptr, ptr %8, align 8, !tbaa !57
  %17 = getelementptr inbounds nuw %"class.cv::Mat", ptr %16, i64 %indvars.iv
  store i32 0, ptr %9, align 8, !tbaa !32
  store i32 0, ptr %10, align 4, !tbaa !33
  store i32 16842752, ptr %3, align 8, !tbaa !31
  store ptr %17, ptr %11, align 8, !tbaa !6
  call void @llvm.lifetime.start.p0(i64 24, ptr nonnull %4) #16
  store i64 0, ptr %13, align 8
  store i32 -1040121856, ptr %4, align 8, !tbaa !31
  store ptr %17, ptr %12, align 8, !tbaa !6
  call void @_ZN2cv3dftERKNS_11_InputArrayERKNS_12_OutputArrayEii(ptr noundef nonnull align 8 dereferenceable(24) %3, ptr noundef nonnull align 8 dereferenceable(24) %4, i32 noundef 0, i32 noundef 0)
  call void @llvm.lifetime.end.p0(i64 24, ptr nonnull %4) #16
  call void @llvm.lifetime.end.p0(i64 24, ptr nonnull %3) #16
  %indvars.iv.next = add nsw i64 %indvars.iv, 1
  %18 = load i32, ptr %6, align 4, !tbaa !66
  %19 = trunc nsw i64 %indvars.iv.next to i32
  %.not = icmp eq i32 %18, %19
  br i1 %.not, label %._crit_edge, label %15, !llvm.loop !113
}